target datalayout = "e-m:e-p270:32:32-p271:32:32-p272:64:64-i64:64-i128:128-f80:128-n8:16:32:64-S128"
target triple = "x86_64-pc-linux-gnu"

%"class.std::__cxx11::basic_string" = type { %"struct.std::__cxx11::basic_string<char>::_Alloc_hider", i64, %union.anon.0 }
%"struct.std::__cxx11::basic_string<char>::_Alloc_hider" = type { ptr }
%union.anon.0 = type { i64, [8 x i8] }
%"class.tl::expected" = type { %"struct.tl::detail::expected_move_assign_base.base", [7 x i8] }
%"struct.tl::detail::expected_move_assign_base.base" = type { %"struct.tl::detail::expected_copy_assign_base.base" }
%"struct.tl::detail::expected_copy_assign_base.base" = type { %"struct.tl::detail::expected_move_base.base" }
%"struct.tl::detail::expected_move_base.base" = type { %"struct.tl::detail::expected_copy_base.base" }
%"struct.tl::detail::expected_copy_base.base" = type { %"struct.tl::detail::expected_operations_base.base" }
%"struct.tl::detail::expected_operations_base.base" = type { %"struct.tl::detail::expected_storage_base.base" }
%"struct.tl::detail::expected_storage_base.base" = type <{ %union.anon.49, i8 }>
%union.anon.49 = type { i64 }
%"class.LIEF::ELF::CorePrStatus" = type { %"class.LIEF::ELF::Note", i32, i32 }
%"class.LIEF::ELF::Note" = type { %"class.LIEF::Object", %"class.std::__cxx11::basic_string", i32, i32, %"class.std::vector.44" }
%"class.LIEF::Object" = type { ptr }
%"class.std::vector.44" = type { %"struct.std::_Vector_base.45" }
%"struct.std::_Vector_base.45" = type { %"struct.std::_Vector_base<unsigned char, std::allocator<unsigned char>>::_Vector_impl" }
%"struct.std::_Vector_base<unsigned char, std::allocator<unsigned char>>::_Vector_impl" = type { %"struct.std::_Vector_base<unsigned char, std::allocator<unsigned char>>::_Vector_impl_data" }
%"struct.std::_Vector_base<unsigned char, std::allocator<unsigned char>>::_Vector_impl_data" = type { ptr, ptr, ptr }

; Function Attrs: mustprogress uwtable
define { i64, i8 } @_ZNK4LIEF3ELF12CorePrStatus3getENS1_9Registers6X86_64E(ptr noundef nonnull align 8 dereferenceable(80) %0, i32 noundef %1) #3 align 2 {
  %3 = alloca %"class.tl::expected", align 8
  %4 = alloca ptr, align 8
  %5 = alloca i32, align 4
  store ptr %0, ptr %4, align 8
  store i32 %1, ptr %5, align 4
  %6 = load ptr, ptr %4, align 8
  %7 = load i32, ptr %5, align 4
  %8 = getelementptr inbounds %"class.LIEF::ELF::Note", ptr %6, i32 0, i32 4
  %9 = getelementptr inbounds %"class.LIEF::ELF::CorePrStatus", ptr %6, i32 0, i32 2
  %10 = load i32, ptr %9, align 4
  %11 = getelementptr inbounds %"class.LIEF::ELF::CorePrStatus", ptr %6, i32 0, i32 1
  %12 = load i32, ptr %11, align 8
  %13 = call { i64, i8 } @_ZN4LIEF3ELF12get_reg_implINS0_12CorePrStatus9Registers6X86_64EEEN2tl8expectedIm11lief_errorsEET_RKSt6vectorIhSaIhEENS0_6Header5CLASSENS0_4ARCHE(i32 noundef %7, ptr noundef nonnull align 8 dereferenceable(24) %8, i32 noundef %10, i32 noundef %12)
  %14 = getelementptr inbounds { i64, i8 }, ptr %3, i32 0, i32 0
  %15 = extractvalue { i64, i8 } %13, 0
  store i64 %15, ptr %14, align 8
  %16 = getelementptr inbounds { i64, i8 }, ptr %3, i32 0, i32 1
  %17 = extractvalue { i64, i8 } %13, 1
  store i8 %17, ptr %16, align 8
  %18 = load { i64, i8 }, ptr %3, align 8
  ret { i64, i8 } %18
}